; Function Attrs: alwaysinline norecurse nounwind uwtable
define internal void @_ZNK8LightGBM18CrossEntropyMetric4EvalEPKdPKNS_17ObjectiveFunctionE.omp_outlined(ptr noalias noundef readonly captures(none) %0, ptr noalias readnone captures(none) %1, ptr noundef readonly captures(none) %2, ptr noundef nonnull align 8 captures(none) dereferenceable(8) %3, ptr noundef nonnull readonly align 8 captures(none) dereferenceable(8) %4) #15 personality ptr @__gxx_personality_v0 {
  %6 = alloca i32, align 4
  %7 = alloca i32, align 4
  %8 = alloca i32, align 4
  %9 = alloca i32, align 4
  %10 = alloca double, align 8
  %11 = alloca [1 x ptr], align 8
  %12 = getelementptr inbounds nuw i8, ptr %2, i64 8
  %13 = load i32, ptr %12, align 8, !tbaa !482
  %14 = icmp sgt i32 %13, 0
  br i1 %14, label %15, label %60

15:                                               ; preds = %5
  %16 = add nsw i32 %13, -1
  call void @llvm.lifetime.start.p0(i64 4, ptr nonnull %6) #16
  store i32 0, ptr %6, align 4, !tbaa !127
  call void @llvm.lifetime.start.p0(i64 4, ptr nonnull %7) #16
  store i32 %16, ptr %7, align 4, !tbaa !127
  call void @llvm.lifetime.start.p0(i64 4, ptr nonnull %8) #16
  store i32 1, ptr %8, align 4, !tbaa !127
  call void @llvm.lifetime.start.p0(i64 4, ptr nonnull %9) #16
  store i32 0, ptr %9, align 4, !tbaa !127
  call void @llvm.lifetime.start.p0(i64 8, ptr nonnull %10) #16
  store double 0.000000e+00, ptr %10, align 8, !tbaa !84
  %17 = load i32, ptr %0, align 4, !tbaa !127
  call void @__kmpc_for_static_init_4(ptr nonnull @1, i32 %17, i32 34, ptr nonnull %9, ptr nonnull %6, ptr nonnull %7, ptr nonnull %8, i32 1, i32 1)
  %18 = load i32, ptr %7, align 4, !tbaa !127
  %19 = call i32 @llvm.smin.i32(i32 %18, i32 %16)
  store i32 %19, ptr %7, align 4, !tbaa !127
  %20 = load i32, ptr %6, align 4, !tbaa !127
  %.not15 = icmp sgt i32 %20, %19
  br i1 %.not15, label %._crit_edge, label %.lr.ph

.lr.ph:                                           ; preds = %15
  %21 = getelementptr inbounds nuw i8, ptr %2, i64 16
  %22 = load ptr, ptr %21, align 8, !tbaa !484
  %23 = load ptr, ptr %4, align 8, !tbaa !81
  %24 = sext i32 %20 to i64
  %25 = add nsw i32 %19, 1
  br label %26

26:                                               ; preds = %.lr.ph, %_ZN8LightGBML8XentLossEfd.exit
  %indvars.iv = phi i64 [ %24, %.lr.ph ], [ %indvars.iv.next, %_ZN8LightGBML8XentLossEfd.exit ]
  %27 = phi double [ 0.000000e+00, %.lr.ph ], [ %50, %_ZN8LightGBML8XentLossEfd.exit ]
  %28 = getelementptr inbounds float, ptr %22, i64 %indvars.iv
  %29 = load float, ptr %28, align 4, !tbaa !78
  %30 = getelementptr inbounds double, ptr %23, i64 %indvars.iv
  %31 = load double, ptr %30, align 8, !tbaa !84
  %32 = fpext float %29 to double
  %33 = fcmp ogt double %31, 0x3D719799812DEA11
  br i1 %33, label %34, label %37

34:                                               ; preds = %26
  %35 = call double @llvm.log.f64(double %31), !tbaa !127
  %36 = fmul double %35, %32
  br label %39

37:                                               ; preds = %26
  %38 = fmul double %32, 0xC03BA18A998FFFA0
  br label %39

39:                                               ; preds = %37, %34
  %.012.i = phi double [ %36, %34 ], [ %38, %37 ]
  %40 = fsub float 1.000000e+00, %29
  %41 = fpext float %40 to double
  %42 = fsub double 1.000000e+00, %31
  %43 = fcmp ogt double %42, 0x3D719799812DEA11
  br i1 %43, label %44, label %47

44:                                               ; preds = %39
  %45 = call double @llvm.log.f64(double %42), !tbaa !127
  %46 = fmul double %45, %41
  br label %_ZN8LightGBML8XentLossEfd.exit

47:                                               ; preds = %39
  %48 = fmul double %41, 0xC03BA18A998FFFA0
  br label %_ZN8LightGBML8XentLossEfd.exit

_ZN8LightGBML8XentLossEfd.exit:                   ; preds = %44, %47
  %.0.i = phi double [ %46, %44 ], [ %48, %47 ]
  %49 = fadd double %.012.i, %.0.i
  %50 = fsub double %27, %49
  store double %50, ptr %10, align 8, !tbaa !84
  %indvars.iv.next = add nsw i64 %indvars.iv, 1
  %lftr.wideiv = trunc i64 %indvars.iv.next to i32
  %exitcond.not = icmp eq i32 %25, %lftr.wideiv
  br i1 %exitcond.not, label %._crit_edge, label %26

._crit_edge:                                      ; preds = %_ZN8LightGBML8XentLossEfd.exit, %15
  call void @__kmpc_for_static_fini(ptr nonnull @1, i32 %17)
  store ptr %10, ptr %11, align 8
  %51 = call i32 @__kmpc_reduce_nowait(ptr nonnull @2, i32 %17, i32 1, i64 8, ptr nonnull %11, ptr nonnull @_ZNK8LightGBM18CrossEntropyMetric4EvalEPKdPKNS_17ObjectiveFunctionE.omp_outlined.omp.reduction.reduction_func, ptr nonnull @.gomp_critical_user_.reduction.var)
  switch i32 %51, label %59 [
    i32 1, label %52
    i32 2, label %56
  ]

52:                                               ; preds = %._crit_edge
  %53 = load double, ptr %3, align 8, !tbaa !84
  %54 = load double, ptr %10, align 8, !tbaa !84
  %55 = fadd double %53, %54
  store double %55, ptr %3, align 8, !tbaa !84
  call void @__kmpc_end_reduce_nowait(ptr nonnull @2, i32 %17, ptr nonnull @.gomp_critical_user_.reduction.var)
  br label %59

56:                                               ; preds = %._crit_edge
  %57 = load double, ptr %10, align 8, !tbaa !84
  %58 = atomicrmw fadd ptr %3, double %57 monotonic, align 8
  br label %59

59:                                               ; preds = %56, %52, %._crit_edge
  call void @llvm.lifetime.end.p0(i64 8, ptr nonnull %10) #16
  call void @llvm.lifetime.end.p0(i64 4, ptr nonnull %9) #16
  call void @llvm.lifetime.end.p0(i64 4, ptr nonnull %8) #16
  call void @llvm.lifetime.end.p0(i64 4, ptr nonnull %7) #16
  call void @llvm.lifetime.end.p0(i64 4, ptr nonnull %6) #16
  br label %60

60:                                               ; preds = %59, %5
  ret void
}